; Function Attrs: nofree norecurse nosync nounwind memory(readwrite, inaccessiblemem: none) uwtable
define internal fastcc i32 @truncated_binary_decode(ptr noundef readonly captures(none) %0, i32 noundef %1) unnamed_addr #3 {
  %3 = add nsw i32 %1, 1
  %.not.i = icmp ult i32 %3, 65536
  %4 = lshr i32 %3, 16
  %spec.select.i = select i1 %.not.i, i32 %3, i32 %4
  %spec.select12.i = select i1 %.not.i, i32 0, i32 16
  %.not11.i = icmp samesign ult i32 %spec.select.i, 256
  %5 = lshr i32 %spec.select.i, 8
  %6 = or disjoint i32 %spec.select12.i, 8
  %.110.i = select i1 %.not11.i, i32 %spec.select.i, i32 %5
  %.1.i = select i1 %.not11.i, i32 %spec.select12.i, i32 %6
  %7 = zext nneg i32 %.110.i to i64
  %8 = getelementptr inbounds nuw [256 x i8], ptr @ff_log2_tab, i64 0, i64 %7
  %9 = load i8, ptr %8, align 1, !tbaa !97
  %10 = zext i8 %9 to i32
  %11 = add nuw nsw i32 %.1.i, %10
  %12 = shl nuw i32 2, %11
  %13 = sub nsw i32 %12, %3
  %.not24 = icmp eq i32 %11, 0
  br i1 %.not24, label %._crit_edge, label %.lr.ph

.lr.ph:                                           ; preds = %2
  %14 = getelementptr inbounds nuw i8, ptr %0, i64 4580560
  %15 = load ptr, ptr %14, align 16, !tbaa !67
  %16 = getelementptr inbounds nuw i8, ptr %15, i64 2672
  %17 = getelementptr inbounds nuw i8, ptr %15, i64 2688
  %18 = getelementptr inbounds nuw i8, ptr %15, i64 2696
  %19 = getelementptr inbounds nuw i8, ptr %15, i64 2676
  %20 = load i32, ptr %19, align 4, !tbaa !100
  %21 = shl i32 %20, 17
  %.promoted = load i32, ptr %16, align 8, !tbaa !70
  br label %22

._crit_edge:                                      ; preds = %get_cabac_bypass.exit, %2
  %.015.lcssa = phi i32 [ 0, %2 ], [ %48, %get_cabac_bypass.exit ]
  %.not = icmp slt i32 %.015.lcssa, %13
  br i1 %.not, label %85, label %50

22:                                               ; preds = %.lr.ph, %get_cabac_bypass.exit
  %23 = phi i32 [ %.promoted, %.lr.ph ], [ %47, %get_cabac_bypass.exit ]
  %.023 = phi i32 [ 0, %.lr.ph ], [ %49, %get_cabac_bypass.exit ]
  %.01522 = phi i32 [ 0, %.lr.ph ], [ %48, %get_cabac_bypass.exit ]
  %24 = shl i32 %.01522, 1
  %25 = shl nsw i32 %23, 1
  store i32 %25, ptr %16, align 8, !tbaa !70
  %26 = and i32 %23, 32767
  %.not.i17 = icmp eq i32 %26, 0
  br i1 %.not.i17, label %27, label %refill.exit.i

27:                                               ; preds = %22
  %28 = load ptr, ptr %17, align 8, !tbaa !68
  %29 = load i8, ptr %28, align 1, !tbaa !97
  %30 = zext i8 %29 to i32
  %31 = shl nuw nsw i32 %30, 9
  %32 = getelementptr inbounds nuw i8, ptr %28, i64 1
  %33 = load i8, ptr %32, align 1, !tbaa !97
  %34 = zext i8 %33 to i32
  %35 = shl nuw nsw i32 %34, 1
  %36 = or disjoint i32 %35, %31
  %37 = add i32 %25, -65535
  %38 = add i32 %37, %36
  store i32 %38, ptr %16, align 8, !tbaa !70
  %39 = load ptr, ptr %18, align 8, !tbaa !71
  %40 = icmp ult ptr %28, %39
  br i1 %40, label %41, label %refill.exit.i

41:                                               ; preds = %27
  %42 = getelementptr inbounds nuw i8, ptr %28, i64 2
  store ptr %42, ptr %17, align 8, !tbaa !68
  br label %refill.exit.i

refill.exit.i:                                    ; preds = %41, %27, %22
  %43 = phi i32 [ %38, %41 ], [ %38, %27 ], [ %25, %22 ]
  %44 = icmp slt i32 %43, %21
  br i1 %44, label %get_cabac_bypass.exit, label %45

45:                                               ; preds = %refill.exit.i
  %46 = sub nsw i32 %43, %21
  store i32 %46, ptr %16, align 8, !tbaa !70
  br label %get_cabac_bypass.exit

get_cabac_bypass.exit:                            ; preds = %refill.exit.i, %45
  %47 = phi i32 [ %46, %45 ], [ %43, %refill.exit.i ]
  %.0.i = phi i32 [ 1, %45 ], [ 0, %refill.exit.i ]
  %48 = or disjoint i32 %.0.i, %24
  %49 = add nuw nsw i32 %.023, 1
  %exitcond.not = icmp eq i32 %49, %11
  br i1 %exitcond.not, label %._crit_edge, label %22, !llvm.loop !108

50:                                               ; preds = %._crit_edge
  %51 = shl i32 %.015.lcssa, 1
  %52 = getelementptr inbounds nuw i8, ptr %0, i64 4580560
  %53 = load ptr, ptr %52, align 16, !tbaa !67
  %54 = getelementptr inbounds nuw i8, ptr %53, i64 2672
  %55 = load i32, ptr %54, align 8, !tbaa !70
  %56 = shl nsw i32 %55, 1
  store i32 %56, ptr %54, align 8, !tbaa !70
  %57 = and i32 %55, 32767
  %.not.i18 = icmp eq i32 %57, 0
  br i1 %.not.i18, label %58, label %refill.exit.i19

58:                                               ; preds = %50
  %59 = getelementptr inbounds nuw i8, ptr %53, i64 2688
  %60 = load ptr, ptr %59, align 8, !tbaa !68
  %61 = load i8, ptr %60, align 1, !tbaa !97
  %62 = zext i8 %61 to i32
  %63 = shl nuw nsw i32 %62, 9
  %64 = getelementptr inbounds nuw i8, ptr %60, i64 1
  %65 = load i8, ptr %64, align 1, !tbaa !97
  %66 = zext i8 %65 to i32
  %67 = shl nuw nsw i32 %66, 1
  %68 = or disjoint i32 %67, %63
  %69 = add i32 %56, -65535
  %70 = add i32 %69, %68
  store i32 %70, ptr %54, align 8, !tbaa !70
  %71 = getelementptr inbounds nuw i8, ptr %53, i64 2696
  %72 = load ptr, ptr %71, align 8, !tbaa !71
  %73 = icmp ult ptr %60, %72
  br i1 %73, label %74, label %refill.exit.i19

74:                                               ; preds = %58
  %75 = getelementptr inbounds nuw i8, ptr %60, i64 2
  store ptr %75, ptr %59, align 8, !tbaa !68
  br label %refill.exit.i19

refill.exit.i19:                                  ; preds = %74, %58, %50
  %76 = phi i32 [ %70, %74 ], [ %70, %58 ], [ %56, %50 ]
  %77 = getelementptr inbounds nuw i8, ptr %53, i64 2676
  %78 = load i32, ptr %77, align 4, !tbaa !100
  %79 = shl i32 %78, 17
  %80 = icmp slt i32 %76, %79
  br i1 %80, label %get_cabac_bypass.exit21, label %81

81:                                               ; preds = %refill.exit.i19
  %82 = sub nsw i32 %76, %79
  store i32 %82, ptr %54, align 8, !tbaa !70
  br label %get_cabac_bypass.exit21

get_cabac_bypass.exit21:                          ; preds = %refill.exit.i19, %81
  %.0.i20 = phi i32 [ 1, %81 ], [ 0, %refill.exit.i19 ]
  %83 = sub i32 %51, %13
  %84 = add i32 %83, %.0.i20
  br label %85

85:                                               ; preds = %get_cabac_bypass.exit21, %._crit_edge
  %.1 = phi i32 [ %84, %get_cabac_bypass.exit21 ], [ %.015.lcssa, %._crit_edge ]
  ret i32 %.1
}